target datalayout = "e-m:e-p270:32:32-p271:32:32-p272:64:64-i64:64-i128:128-f80:128-n8:16:32:64-S128"
target triple = "x86_64-pc-linux-gnu"

%"struct.cv::utils::trace::details::Region::LocationStaticStorage" = type { ptr, ptr, ptr, i32, i32 }
%"class.cv::utils::trace::details::Region" = type <{ ptr, i32, [4 x i8] }>
%union.Cv32suf = type { i32 }

@_ZZN2cv3hal12cpu_baseline6log32fEPKfPfiE25__cv_trace_location_fn761 = internal constant %"struct.cv::utils::trace::details::Region::LocationStaticStorage" { ptr @_ZZN2cv3hal12cpu_baseline6log32fEPKfPfiE31__cv_trace_location_extra_fn761, ptr @.str.14, ptr @.str.1, i32 761, i32 1 }, align 8

; Function Attrs: mustprogress uwtable
define hidden void @_ZN2cv3hal12cpu_baseline6log32fEPKfPfi(ptr noundef %0, ptr noundef %1, i32 noundef %2) #0 personality ptr @__gxx_personality_v0 {
  %4 = alloca ptr, align 8
  %5 = alloca ptr, align 8
  %6 = alloca i32, align 4
  %7 = alloca %"class.cv::utils::trace::details::Region", align 8
  %8 = alloca ptr, align 8
  %9 = alloca ptr, align 8
  %10 = alloca i32, align 4
  %11 = alloca i32, align 4
  %12 = alloca float, align 4
  %13 = alloca float, align 4
  %14 = alloca float, align 4
  %15 = alloca i32, align 4
  %16 = alloca ptr, align 8
  %17 = alloca %union.Cv32suf, align 4
  %18 = alloca i32, align 4
  %19 = alloca i32, align 4
  %20 = alloca float, align 4
  %21 = alloca float, align 4
  store ptr %0, ptr %4, align 8, !tbaa !3
  store ptr %1, ptr %5, align 8, !tbaa !3
  store i32 %2, ptr %6, align 4, !tbaa !8
  call void @llvm.lifetime.start.p0(i64 16, ptr %7) #14
  call void @_ZN2cv5utils5trace7details6RegionC1ERKNS3_21LocationStaticStorageE(ptr noundef nonnull align 8 dereferenceable(12) %7, ptr noundef nonnull align 8 dereferenceable(32) @_ZZN2cv3hal12cpu_baseline6log32fEPKfPfiE25__cv_trace_location_fn761)
  call void @llvm.lifetime.start.p0(i64 8, ptr %8) #14
  %22 = invoke noundef ptr @_ZN2cv7details12getLogTab32fEv()
          to label %23 unwind label %78

23:                                               ; preds = %3
  store ptr %22, ptr %8, align 8, !tbaa !3
  call void @llvm.lifetime.start.p0(i64 4, ptr %11) #14
  store i32 32767, ptr %11, align 4, !tbaa !8
  call void @llvm.lifetime.start.p0(i64 4, ptr %12) #14
  store float 0x3FD5555560000000, ptr %12, align 4, !tbaa !14
  call void @llvm.lifetime.start.p0(i64 4, ptr %13) #14
  store float -5.000000e-01, ptr %13, align 4, !tbaa !14
  call void @llvm.lifetime.start.p0(i64 4, ptr %14) #14
  store float 1.000000e+00, ptr %14, align 4, !tbaa !14
  call void @llvm.lifetime.start.p0(i64 4, ptr %15) #14
  store i32 0, ptr %15, align 4, !tbaa !8
  call void @llvm.lifetime.start.p0(i64 8, ptr %16) #14
  %24 = load ptr, ptr %4, align 8, !tbaa !3
  store ptr %24, ptr %16, align 8, !tbaa !31
  br label %25

25:                                               ; preds = %75, %23
  %26 = load i32, ptr %15, align 4, !tbaa !8
  %27 = load i32, ptr %6, align 4, !tbaa !8
  %28 = icmp slt i32 %26, %27
  br i1 %28, label %29, label %82

29:                                               ; preds = %25
  call void @llvm.lifetime.start.p0(i64 4, ptr %17) #14
  call void @llvm.lifetime.start.p0(i64 4, ptr %18) #14
  %30 = load ptr, ptr %16, align 8, !tbaa !31
  %31 = load i32, ptr %15, align 4, !tbaa !8
  %32 = sext i32 %31 to i64
  %33 = getelementptr inbounds i32, ptr %30, i64 %32
  %34 = load i32, ptr %33, align 4, !tbaa !8
  store i32 %34, ptr %18, align 4, !tbaa !8
  %35 = load i32, ptr %18, align 4, !tbaa !8
  %36 = and i32 %35, 32767
  %37 = or i32 %36, 1065353216
  store i32 %37, ptr %17, align 4, !tbaa !45
  call void @llvm.lifetime.start.p0(i64 4, ptr %19) #14
  %38 = load i32, ptr %18, align 4, !tbaa !8
  %39 = ashr i32 %38, 14
  %40 = and i32 %39, 510
  store i32 %40, ptr %19, align 4, !tbaa !8
  call void @llvm.lifetime.start.p0(i64 4, ptr %20) #14
  %41 = load i32, ptr %18, align 4, !tbaa !8
  %42 = ashr i32 %41, 23
  %43 = and i32 %42, 255
  %44 = sub nsw i32 %43, 127
  %45 = sitofp i32 %44 to float
  %46 = load ptr, ptr %8, align 8, !tbaa !3
  %47 = load i32, ptr %19, align 4, !tbaa !8
  %48 = sext i32 %47 to i64
  %49 = getelementptr inbounds float, ptr %46, i64 %48
  %50 = load float, ptr %49, align 4, !tbaa !14
  %51 = call float @llvm.fmuladd.f32(float %45, float 0x3FE62E4300000000, float %50)
  store float %51, ptr %20, align 4, !tbaa !14
  call void @llvm.lifetime.start.p0(i64 4, ptr %21) #14
  %52 = load float, ptr %17, align 4, !tbaa !45
  %53 = fsub float %52, 1.000000e+00
  %54 = load ptr, ptr %8, align 8, !tbaa !3
  %55 = load i32, ptr %19, align 4, !tbaa !8
  %56 = add nsw i32 %55, 1
  %57 = sext i32 %56 to i64
  %58 = getelementptr inbounds float, ptr %54, i64 %57
  %59 = load float, ptr %58, align 4, !tbaa !14
  %60 = load i32, ptr %19, align 4, !tbaa !8
  %61 = icmp eq i32 %60, 510
  %62 = select i1 %61, float 0xBF60000000000000, float 0.000000e+00
  %63 = call float @llvm.fmuladd.f32(float %53, float %59, float %62)
  store float %63, ptr %21, align 4, !tbaa !14
  %64 = load float, ptr %21, align 4, !tbaa !14
  %65 = call float @llvm.fmuladd.f32(float 0x3FD5555560000000, float %64, float -5.000000e-01)
  %66 = load float, ptr %21, align 4, !tbaa !14
  %67 = call float @llvm.fmuladd.f32(float %65, float %66, float 1.000000e+00)
  %68 = load float, ptr %21, align 4, !tbaa !14
  %69 = load float, ptr %20, align 4, !tbaa !14
  %70 = call float @llvm.fmuladd.f32(float %67, float %68, float %69)
  %71 = load ptr, ptr %5, align 8, !tbaa !3
  %72 = load i32, ptr %15, align 4, !tbaa !8
  %73 = sext i32 %72 to i64
  %74 = getelementptr inbounds float, ptr %71, i64 %73
  store float %70, ptr %74, align 4, !tbaa !14
  call void @llvm.lifetime.end.p0(i64 4, ptr %21) #14
  call void @llvm.lifetime.end.p0(i64 4, ptr %20) #14
  call void @llvm.lifetime.end.p0(i64 4, ptr %19) #14
  call void @llvm.lifetime.end.p0(i64 4, ptr %18) #14
  call void @llvm.lifetime.end.p0(i64 4, ptr %17) #14
  br label %75

75:                                               ; preds = %29
  %76 = load i32, ptr %15, align 4, !tbaa !8
  %77 = add nsw i32 %76, 1
  store i32 %77, ptr %15, align 4, !tbaa !8
  br label %25, !llvm.loop !50

78:                                               ; preds = %3
  %79 = landingpad { ptr, i32 }
          cleanup
  %80 = extractvalue { ptr, i32 } %79, 0
  store ptr %80, ptr %9, align 8
  %81 = extractvalue { ptr, i32 } %79, 1
  store i32 %81, ptr %10, align 4
  call void @llvm.lifetime.end.p0(i64 8, ptr %8) #14
  call void @_ZN2cv5utils5trace7details6RegionD2Ev(ptr noundef nonnull align 8 dereferenceable(12) %7) #14
  call void @llvm.lifetime.end.p0(i64 16, ptr %7) #14
  br label %83

82:                                               ; preds = %25
  call void @llvm.lifetime.end.p0(i64 8, ptr %16) #14
  call void @llvm.lifetime.end.p0(i64 4, ptr %15) #14
  call void @llvm.lifetime.end.p0(i64 4, ptr %14) #14
  call void @llvm.lifetime.end.p0(i64 4, ptr %13) #14
  call void @llvm.lifetime.end.p0(i64 4, ptr %12) #14
  call void @llvm.lifetime.end.p0(i64 4, ptr %11) #14
  call void @llvm.lifetime.end.p0(i64 8, ptr %8) #14
  call void @_ZN2cv5utils5trace7details6RegionD2Ev(ptr noundef nonnull align 8 dereferenceable(12) %7) #14
  call void @llvm.lifetime.end.p0(i64 16, ptr %7) #14
  ret void

83:                                               ; preds = %78
  %84 = load ptr, ptr %9, align 8
  %85 = load i32, ptr %10, align 4
  %86 = insertvalue { ptr, i32 } poison, ptr %84, 0
  %87 = insertvalue { ptr, i32 } %86, i32 %85, 1
  resume { ptr, i32 } %87
}