; Function Attrs: mustprogress uwtable
define hidden void @_ZN2cv3hal12cpu_baseline6log32fEPKfPfi(ptr noundef readonly captures(none) %0, ptr noundef writeonly captures(none) %1, i32 noundef %2) local_unnamed_addr #0 personality ptr @__gxx_personality_v0 {
  %4 = alloca %"class.cv::utils::trace::details::Region", align 8
  call void @llvm.lifetime.start.p0(i64 16, ptr nonnull %4) #12
  call void @_ZN2cv5utils5trace7details6RegionC1ERKNS3_21LocationStaticStorageE(ptr noundef nonnull align 8 dereferenceable(12) %4, ptr noundef nonnull align 8 dereferenceable(32) @_ZZN2cv3hal12cpu_baseline6log32fEPKfPfiE25__cv_trace_location_fn761)
  %5 = invoke noundef ptr @_ZN2cv7details12getLogTab32fEv()
          to label %.preheader unwind label %34

.preheader:                                       ; preds = %3
  %6 = icmp sgt i32 %2, 0
  br i1 %6, label %.lr.ph.preheader, label %._crit_edge

.lr.ph.preheader:                                 ; preds = %.preheader
  %wide.trip.count = zext nneg i32 %2 to i64
  br label %.lr.ph

.lr.ph:                                           ; preds = %.lr.ph.preheader, %.lr.ph
  %indvars.iv = phi i64 [ 0, %.lr.ph.preheader ], [ %indvars.iv.next, %.lr.ph ]
  %7 = getelementptr inbounds nuw i32, ptr %0, i64 %indvars.iv
  %8 = load i32, ptr %7, align 4, !tbaa !26
  %9 = and i32 %8, 32767
  %10 = or disjoint i32 %9, 1065353216
  %11 = lshr i32 %8, 14
  %12 = and i32 %11, 510
  %13 = lshr i32 %8, 23
  %14 = and i32 %13, 255
  %15 = add nsw i32 %14, -127
  %16 = sitofp i32 %15 to float
  %17 = zext nneg i32 %12 to i64
  %18 = getelementptr inbounds nuw float, ptr %5, i64 %17
  %19 = load float, ptr %18, align 4, !tbaa !3
  %20 = call float @llvm.fmuladd.f32(float %16, float 0x3FE62E4300000000, float %19)
  %21 = bitcast i32 %10 to float
  %22 = fadd float %21, -1.000000e+00
  %23 = or disjoint i32 %12, 1
  %24 = zext nneg i32 %23 to i64
  %25 = getelementptr inbounds nuw float, ptr %5, i64 %24
  %26 = load float, ptr %25, align 4, !tbaa !3
  %27 = icmp eq i32 %12, 510
  %28 = select i1 %27, float 0xBF60000000000000, float 0.000000e+00
  %29 = call float @llvm.fmuladd.f32(float %22, float %26, float %28)
  %30 = call float @llvm.fmuladd.f32(float %29, float 0x3FD5555560000000, float -5.000000e-01)
  %31 = call float @llvm.fmuladd.f32(float %30, float %29, float 1.000000e+00)
  %32 = call float @llvm.fmuladd.f32(float %31, float %29, float %20)
  %33 = getelementptr inbounds nuw float, ptr %1, i64 %indvars.iv
  store float %32, ptr %33, align 4, !tbaa !3
  %indvars.iv.next = add nuw nsw i64 %indvars.iv, 1
  %exitcond.not = icmp eq i64 %indvars.iv.next, %wide.trip.count
  br i1 %exitcond.not, label %._crit_edge, label %.lr.ph, !llvm.loop !34

34:                                               ; preds = %3
  %35 = landingpad { ptr, i32 }
          cleanup
  call void @_ZN2cv5utils5trace7details6RegionD2Ev(ptr noundef nonnull align 8 dereferenceable(12) %4) #12
  call void @llvm.lifetime.end.p0(i64 16, ptr nonnull %4) #12
  resume { ptr, i32 } %35

._crit_edge:                                      ; preds = %.lr.ph, %.preheader
  %36 = getelementptr inbounds nuw i8, ptr %4, i64 8
  %37 = load i32, ptr %36, align 8, !tbaa !9
  %.not.i = icmp eq i32 %37, 0
  br i1 %.not.i, label %_ZN2cv5utils5trace7details6RegionD2Ev.exit, label %38

38:                                               ; preds = %._crit_edge
  invoke void @_ZN2cv5utils5trace7details6Region7destroyEv(ptr noundef nonnull align 8 dereferenceable(12) %4)
          to label %_ZN2cv5utils5trace7details6RegionD2Ev.exit unwind label %39

39:                                               ; preds = %38
  %40 = landingpad { ptr, i32 }
          catch ptr null
  %41 = extractvalue { ptr, i32 } %40, 0
  call void @__clang_call_terminate(ptr %41) #13
  unreachable

_ZN2cv5utils5trace7details6RegionD2Ev.exit:       ; preds = %._crit_edge, %38
  call void @llvm.lifetime.end.p0(i64 16, ptr nonnull %4) #12
  ret void
}